target datalayout = "e-m:e-p270:32:32-p271:32:32-p272:64:64-i64:64-i128:128-f80:128-n8:16:32:64-S128"
target triple = "x86_64-pc-linux-gnu"

%struct.envelope = type { i32, ptr, ptr, ptr, ptr, i64, ptr, i32, %struct.tMPI_Atomic, i32, ptr, ptr, i32, ptr, ptr, ptr, ptr }
%struct.tMPI_Atomic = type { i32, [60 x i8] }
%struct.send_envelope_list = type { ptr, %struct.tMPI_Atomic_ptr, %struct.tMPI_Atomic_ptr, ptr, ptr, i64 }
%struct.tMPI_Atomic_ptr = type { ptr, [56 x i8] }

; Function Attrs: mustprogress uwtable
define noundef i32 @_Z23tMPI_Send_env_list_initP18send_envelope_listi(ptr noundef %0, i32 noundef %1) #0 {
  %3 = alloca i32, align 4
  %4 = alloca ptr, align 8
  %5 = alloca i32, align 4
  %6 = alloca i32, align 4
  %7 = alloca i32, align 4
  store ptr %0, ptr %4, align 8, !tbaa !27
  store i32 %1, ptr %5, align 4, !tbaa !8
  call void @llvm.lifetime.start.p0(i64 4, ptr %6) #7
  %8 = load i32, ptr %5, align 4, !tbaa !8
  %9 = sext i32 %8 to i64
  %10 = load ptr, ptr %4, align 8, !tbaa !27
  %11 = getelementptr inbounds nuw %struct.send_envelope_list, ptr %10, i32 0, i32 5
  store i64 %9, ptr %11, align 8, !tbaa !28
  %12 = load i32, ptr %5, align 4, !tbaa !8
  %13 = sext i32 %12 to i64
  %14 = mul i64 184, %13
  %15 = call noundef ptr @_Z11tMPI_Mallocm(i64 noundef %14)
  %16 = load ptr, ptr %4, align 8, !tbaa !27
  %17 = getelementptr inbounds nuw %struct.send_envelope_list, ptr %16, i32 0, i32 4
  store ptr %15, ptr %17, align 8, !tbaa !31
  %18 = load ptr, ptr %4, align 8, !tbaa !27
  %19 = getelementptr inbounds nuw %struct.send_envelope_list, ptr %18, i32 0, i32 4
  %20 = load ptr, ptr %19, align 8, !tbaa !31
  %21 = icmp eq ptr %20, null
  br i1 %21, label %22, label %23

22:                                               ; preds = %2
  store i32 1, ptr %3, align 4
  store i32 1, ptr %7, align 4
  br label %108

23:                                               ; preds = %2
  store i32 0, ptr %6, align 4, !tbaa !8
  br label %24

24:                                               ; preds = %73, %23
  %25 = load i32, ptr %6, align 4, !tbaa !8
  %26 = load i32, ptr %5, align 4, !tbaa !8
  %27 = icmp slt i32 %25, %26
  br i1 %27, label %28, label %76

28:                                               ; preds = %24
  %29 = load i32, ptr %6, align 4, !tbaa !8
  %30 = load i32, ptr %5, align 4, !tbaa !8
  %31 = sub nsw i32 %30, 1
  %32 = icmp slt i32 %29, %31
  br i1 %32, label %33, label %41

33:                                               ; preds = %28
  %34 = load ptr, ptr %4, align 8, !tbaa !27
  %35 = getelementptr inbounds nuw %struct.send_envelope_list, ptr %34, i32 0, i32 4
  %36 = load ptr, ptr %35, align 8, !tbaa !31
  %37 = load i32, ptr %6, align 4, !tbaa !8
  %38 = add nsw i32 %37, 1
  %39 = sext i32 %38 to i64
  %40 = getelementptr inbounds %struct.envelope, ptr %36, i64 %39
  br label %42

41:                                               ; preds = %28
  br label %42

42:                                               ; preds = %41, %33
  %43 = phi ptr [ %40, %33 ], [ null, %41 ]
  %44 = load ptr, ptr %4, align 8, !tbaa !27
  %45 = getelementptr inbounds nuw %struct.send_envelope_list, ptr %44, i32 0, i32 4
  %46 = load ptr, ptr %45, align 8, !tbaa !31
  %47 = load i32, ptr %6, align 4, !tbaa !8
  %48 = sext i32 %47 to i64
  %49 = getelementptr inbounds %struct.envelope, ptr %46, i64 %48
  %50 = getelementptr inbounds nuw %struct.envelope, ptr %49, i32 0, i32 11
  store ptr %43, ptr %50, align 8, !tbaa !14
  %51 = load ptr, ptr %4, align 8, !tbaa !27
  %52 = getelementptr inbounds nuw %struct.send_envelope_list, ptr %51, i32 0, i32 4
  %53 = load ptr, ptr %52, align 8, !tbaa !31
  %54 = load i32, ptr %6, align 4, !tbaa !8
  %55 = sext i32 %54 to i64
  %56 = getelementptr inbounds %struct.envelope, ptr %53, i64 %55
  %57 = getelementptr inbounds nuw %struct.envelope, ptr %56, i32 0, i32 10
  store ptr null, ptr %57, align 8, !tbaa !32
  %58 = load ptr, ptr %4, align 8, !tbaa !27
  %59 = load ptr, ptr %4, align 8, !tbaa !27
  %60 = getelementptr inbounds nuw %struct.send_envelope_list, ptr %59, i32 0, i32 4
  %61 = load ptr, ptr %60, align 8, !tbaa !31
  %62 = load i32, ptr %6, align 4, !tbaa !8
  %63 = sext i32 %62 to i64
  %64 = getelementptr inbounds %struct.envelope, ptr %61, i64 %63
  %65 = getelementptr inbounds nuw %struct.envelope, ptr %64, i32 0, i32 16
  store ptr %58, ptr %65, align 8, !tbaa !24
  %66 = load ptr, ptr %4, align 8, !tbaa !27
  %67 = getelementptr inbounds nuw %struct.send_envelope_list, ptr %66, i32 0, i32 4
  %68 = load ptr, ptr %67, align 8, !tbaa !31
  %69 = load i32, ptr %6, align 4, !tbaa !8
  %70 = sext i32 %69 to i64
  %71 = getelementptr inbounds %struct.envelope, ptr %68, i64 %70
  %72 = getelementptr inbounds nuw %struct.envelope, ptr %71, i32 0, i32 15
  store ptr null, ptr %72, align 8, !tbaa !23
  br label %73

73:                                               ; preds = %42
  %74 = load i32, ptr %6, align 4, !tbaa !8
  %75 = add nsw i32 %74, 1
  store i32 %75, ptr %6, align 4, !tbaa !8
  br label %24, !llvm.loop !33

76:                                               ; preds = %24
  %77 = load ptr, ptr %4, align 8, !tbaa !27
  %78 = getelementptr inbounds nuw %struct.send_envelope_list, ptr %77, i32 0, i32 1
  %79 = getelementptr inbounds nuw %struct.tMPI_Atomic_ptr, ptr %78, i32 0, i32 0
  store ptr null, ptr %79, align 8, !tbaa !34
  %80 = load ptr, ptr %4, align 8, !tbaa !27
  %81 = getelementptr inbounds nuw %struct.send_envelope_list, ptr %80, i32 0, i32 2
  %82 = getelementptr inbounds nuw %struct.tMPI_Atomic_ptr, ptr %81, i32 0, i32 0
  store ptr null, ptr %82, align 8, !tbaa !35
  %83 = load ptr, ptr %4, align 8, !tbaa !27
  %84 = getelementptr inbounds nuw %struct.send_envelope_list, ptr %83, i32 0, i32 4
  %85 = load ptr, ptr %84, align 8, !tbaa !31
  %86 = getelementptr inbounds %struct.envelope, ptr %85, i64 1
  %87 = load ptr, ptr %4, align 8, !tbaa !27
  %88 = getelementptr inbounds nuw %struct.send_envelope_list, ptr %87, i32 0, i32 0
  store ptr %86, ptr %88, align 8, !tbaa !36
  %89 = load ptr, ptr %4, align 8, !tbaa !27
  %90 = getelementptr inbounds nuw %struct.send_envelope_list, ptr %89, i32 0, i32 4
  %91 = load ptr, ptr %90, align 8, !tbaa !31
  %92 = load ptr, ptr %4, align 8, !tbaa !27
  %93 = getelementptr inbounds nuw %struct.send_envelope_list, ptr %92, i32 0, i32 3
  store ptr %91, ptr %93, align 8, !tbaa !37
  %94 = load ptr, ptr %4, align 8, !tbaa !27
  %95 = getelementptr inbounds nuw %struct.send_envelope_list, ptr %94, i32 0, i32 3
  %96 = load ptr, ptr %95, align 8, !tbaa !37
  %97 = load ptr, ptr %4, align 8, !tbaa !27
  %98 = getelementptr inbounds nuw %struct.send_envelope_list, ptr %97, i32 0, i32 3
  %99 = load ptr, ptr %98, align 8, !tbaa !37
  %100 = getelementptr inbounds nuw %struct.envelope, ptr %99, i32 0, i32 11
  store ptr %96, ptr %100, align 8, !tbaa !14
  %101 = load ptr, ptr %4, align 8, !tbaa !27
  %102 = getelementptr inbounds nuw %struct.send_envelope_list, ptr %101, i32 0, i32 3
  %103 = load ptr, ptr %102, align 8, !tbaa !37
  %104 = load ptr, ptr %4, align 8, !tbaa !27
  %105 = getelementptr inbounds nuw %struct.send_envelope_list, ptr %104, i32 0, i32 3
  %106 = load ptr, ptr %105, align 8, !tbaa !37
  %107 = getelementptr inbounds nuw %struct.envelope, ptr %106, i32 0, i32 10
  store ptr %103, ptr %107, align 8, !tbaa !32
  store i32 0, ptr %3, align 4
  store i32 1, ptr %7, align 4
  br label %108

108:                                              ; preds = %76, %22
  call void @llvm.lifetime.end.p0(i64 4, ptr %6) #7
  %109 = load i32, ptr %3, align 4
  ret i32 %109
}