; Function Attrs: mustprogress uwtable
define noundef range(i32 0, 2) i32 @_Z23tMPI_Send_env_list_initP18send_envelope_listi(ptr noundef initializes((144, 160)) %0, i32 noundef %1) local_unnamed_addr #0 {
  %3 = sext i32 %1 to i64
  %4 = getelementptr inbounds nuw i8, ptr %0, i64 152
  store i64 %3, ptr %4, align 8, !tbaa !22
  %5 = mul nsw i64 %3, 184
  %6 = tail call noundef ptr @_Z11tMPI_Mallocm(i64 noundef %5)
  %7 = getelementptr inbounds nuw i8, ptr %0, i64 144
  store ptr %6, ptr %7, align 8, !tbaa !25
  %8 = icmp eq ptr %6, null
  br i1 %8, label %24, label %.preheader

.preheader:                                       ; preds = %2
  %invariant.gep = getelementptr inbounds nuw i8, ptr %6, i64 184
  %9 = icmp sgt i32 %1, 0
  br i1 %9, label %.lr.ph, label %._crit_edge

.lr.ph:                                           ; preds = %.preheader
  %10 = add nsw i32 %1, -1
  %11 = zext nneg i32 %10 to i64
  %wide.trip.count = zext nneg i32 %1 to i64
  br label %12

12:                                               ; preds = %.lr.ph, %12
  %indvars.iv = phi i64 [ 0, %.lr.ph ], [ %indvars.iv.next, %12 ]
  %13 = icmp samesign ult i64 %indvars.iv, %11
  %gep = getelementptr inbounds nuw %struct.envelope, ptr %invariant.gep, i64 %indvars.iv
  %14 = select i1 %13, ptr %gep, ptr null
  %15 = getelementptr inbounds nuw %struct.envelope, ptr %6, i64 %indvars.iv, i32 11
  store ptr %14, ptr %15, align 8, !tbaa !10
  %16 = getelementptr inbounds nuw %struct.envelope, ptr %6, i64 %indvars.iv, i32 10
  store ptr null, ptr %16, align 8, !tbaa !26
  %17 = getelementptr inbounds nuw %struct.envelope, ptr %6, i64 %indvars.iv, i32 16
  store ptr %0, ptr %17, align 8, !tbaa !27
  %18 = getelementptr inbounds nuw %struct.envelope, ptr %6, i64 %indvars.iv, i32 15
  store ptr null, ptr %18, align 8, !tbaa !28
  %indvars.iv.next = add nuw nsw i64 %indvars.iv, 1
  %exitcond.not = icmp eq i64 %indvars.iv.next, %wide.trip.count
  br i1 %exitcond.not, label %._crit_edge, label %12, !llvm.loop !29

._crit_edge:                                      ; preds = %12, %.preheader
  %19 = getelementptr inbounds nuw i8, ptr %0, i64 8
  store ptr null, ptr %19, align 8, !tbaa !30
  %20 = getelementptr inbounds nuw i8, ptr %0, i64 72
  store ptr null, ptr %20, align 8, !tbaa !31
  store ptr %invariant.gep, ptr %0, align 8, !tbaa !32
  %21 = getelementptr inbounds nuw i8, ptr %0, i64 136
  store ptr %6, ptr %21, align 8, !tbaa !33
  %22 = getelementptr inbounds nuw i8, ptr %6, i64 136
  store ptr %6, ptr %22, align 8, !tbaa !10
  %23 = getelementptr inbounds nuw i8, ptr %6, i64 128
  store ptr %6, ptr %23, align 8, !tbaa !26
  br label %24

24:                                               ; preds = %2, %._crit_edge
  %.031 = phi i32 [ 0, %._crit_edge ], [ 1, %2 ]
  ret i32 %.031
}